$ fq 'dv, torepr' multi_tables.sql.db
      |00 01 02 03 04 05 06 07 08 09 0a 0b 0c 0d 0e 0f|0123456789abcdef|.{}: multi_tables.sql.db (sqlite3) 0x0-0x6fff.7 (28672)
      |                                               |                |  header{}: 0x0-0x63.7 (100)
0x0000|53 51 4c 69 74 65 20 66 6f 72 6d 61 74 20 33 00|SQLite format 3.|    magic: "SQLite format 3\x00" (valid) 0x0-0xf.7 (16)
0x0010|10 00                                          |..              |    page_size: 4096 0x10-0x11.7 (2)
0x0010|      01                                       |  .             |    write_version: "legacy" (1) 0x12-0x12.7 (1)
0x0010|         01                                    |   .            |    read_version: "legacy" (1) 0x13-0x13.7 (1)
0x0010|            00                                 |    .           |    unused_space: 0 0x14-0x14.7 (1)
0x0010|               40                              |     @          |    maximum_embedded_payload_fraction: 64 0x15-0x15.7 (1)
0x0010|                  20                           |                |    minimum_embedded_payload_fraction: 32 0x16-0x16.7 (1)
0x0010|                     20                        |                |    leaf_payload_fraction: 32 0x17-0x17.7 (1)
0x0010|                        00 00 00 06            |        ....    |    file_change_counter: 6 0x18-0x1b.7 (4)
0x0010|                                    00 00 00 07|            ....|    database_size_pages: 7 0x1c-0x1f.7 (4)
0x0020|00 00 00 00                                    |....            |    page_number_freelist: 0 0x20-0x23.7 (4)
0x0020|            00 00 00 00                        |    ....        |    total_number_freelist: 0 0x24-0x27.7 (4)
0x0020|                        00 00 00 03            |        ....    |    schema_cookie: 3 0x28-0x2b.7 (4)
0x0020|                                    00 00 00 04|            ....|    schema_format_number: 4 0x2c-0x2f.7 (4)
0x0030|00 00 00 00                                    |....            |    default_page_cache_size: 0 0x30-0x33.7 (4)
0x0030|            00 00 00 00                        |    ....        |    page_number_largest_root_btree: 0 0x34-0x37.7 (4)
0x0030|                        00 00 00 01            |        ....    |    text_encoding: "utf8" (1) 0x38-0x3b.7 (4)
0x0030|                                    00 00 00 00|            ....|    user_version: 0 0x3c-0x3f.7 (4)
0x0040|00 00 00 00                                    |....            |    incremental_vacuum_mode: 0 0x40-0x43.7 (4)
0x0040|            00 00 00 00                        |    ....        |    application_id: 0 0x44-0x47.7 (4)
0x0040|                        00 00 00 00 00 00 00 00|        ........|    reserved: raw bits (all zero) 0x48-0x5b.7 (20)
0x0050|00 00 00 00 00 00 00 00 00 00 00 00            |............    |
0x0050|                                    00 00 00 06|            ....|    version_valid_for: 6 0x5c-0x5f.7 (4)
0x0060|00 2e 53 60                                    |..S`            |    sqlite_version_number: 3036000 0x60-0x63.7 (4)
      |                                               |                |  pages[0:8]: 0x64-0x6fff.7 (28572)
      |                                               |                |    [0]{}: page 0x64-NA (0)
      |                                               |                |      type: "page0_index_fill" 0x64-NA (0)
      |                                               |                |    [1]{}: page 0x64-0xff9.7 (3990)
0x0060|            0d                                 |    .           |      type: "table_leaf" (13) 0x64-0x64.7 (1)
0x0060|               0f f8                           |     ..         |      start_freeblocks: 4088 0x65-0x66.7 (2)
0x0060|                     00 06                     |       ..       |      page_cells: 6 0x67-0x68.7 (2)
0x0060|                           0e 8d               |         ..     |      cell_start: 3725 0x69-0x6a.7 (2)
0x0060|                                 00            |           .    |      cell_fragments: 0 0x6b-0x6b.7 (1)
      |                                               |                |      cells_pointers[0:6]: 0x6c-0x77.7 (12)
0x0060|                                    0f 7f      |            ..  |        [0]: 3967 pointer 0x6c-0x6d.7 (2)
0x0060|                                          0f d1|              ..|        [1]: 4049 pointer 0x6e-0x6f.7 (2)
0x0070|0f 06                                          |..              |        [2]: 3846 pointer 0x70-0x71.7 (2)
0x0070|      0f 58                                    |  .X            |        [3]: 3928 pointer 0x72-0x73.7 (2)
0x0070|            0e 8d                              |    ..          |        [4]: 3725 pointer 0x74-0x75.7 (2)
0x0070|                  0e df                        |      ..        |        [5]: 3807 pointer 0x76-0x77.7 (2)
      |                                               |                |      cells[0:6]: 0xe8d-0xff7.7 (363)
      |                                               |                |        [0]{}: cell 0xf7f-0xfd0.7 (82)
0x0f70|                                             50|               P|          payload_len: 80 0xf7f-0xf7f.7 (1)
0x0f80|01                                             |.               |          rowid: 1 0xf80-0xf80.7 (1)
      |                                               |                |          payload{}: 0xf81-0xfd0.7 (80)
0x0f80|   07                                          | .              |            length: 7 0xf81-0xf81.7 (1)
      |                                               |                |            serials[0:5]: 0xf82-0xf87.7 (6)
0x0f80|      17                                       |  .             |              [0]: 23 serial (text) 0xf82-0xf82.7 (1)
0x0f80|         13                                    |   .            |              [1]: 19 serial (text) 0xf83-0xf83.7 (1)
0x0f80|            13                                 |    .           |              [2]: 19 serial (text) 0xf84-0xf84.7 (1)
0x0f80|               01                              |     .          |              [3]: 1 serial (int8) 0xf85-0xf85.7 (1)
0x0f80|                  81 07                        |      ..        |              [4]: 135 serial (text) 0xf86-0xf87.7 (2)
      |                                               |                |            contents[0:5]: 0xf88-0xfd0.7 (73)
0x0f80|                        74 61 62 6c 65         |        table   |              [0]: "table" value 0xf88-0xf8c.7 (5)
0x0f80|                                       61 61 61|             aaa|              [1]: "aaa" value 0xf8d-0xf8f.7 (3)
0x0f90|61 61 61                                       |aaa             |              [2]: "aaa" value 0xf90-0xf92.7 (3)
0x0f90|         02                                    |   .            |              [3]: 2 value 0xf93-0xf93.7 (1)
0x0f90|            43 52 45 41 54 45 20 54 41 42 4c 45|    CREATE TABLE|              [4]: "CREATE TABLE aaa (\n    cint int primary key,\n    c"... value 0xf94-0xfd0.7 (61)
0x0fa0|20 61 61 61 20 28 0a 20 20 20 20 63 69 6e 74 20| aaa (.    cint |
*     |until 0xfd0.7 (61)                             |                |
      |                                               |                |        [1]{}: cell 0xfd1-0xff7.7 (39)
0x0fd0|   25                                          | %              |          payload_len: 37 0xfd1-0xfd1.7 (1)
0x0fd0|      02                                       |  .             |          rowid: 2 0xfd2-0xfd2.7 (1)
      |                                               |                |          payload{}: 0xfd3-0xff7.7 (37)
0x0fd0|         06                                    |   .            |            length: 6 0xfd3-0xfd3.7 (1)
      |                                               |                |            serials[0:5]: 0xfd4-0xfd8.7 (5)
0x0fd0|            17                                 |    .           |              [0]: 23 serial (text) 0xfd4-0xfd4.7 (1)
0x0fd0|               39                              |     9          |              [1]: 57 serial (text) 0xfd5-0xfd5.7 (1)
0x0fd0|                  13                           |      .         |              [2]: 19 serial (text) 0xfd6-0xfd6.7 (1)
0x0fd0|                     01                        |       .        |              [3]: 1 serial (int8) 0xfd7-0xfd7.7 (1)
0x0fd0|                        00                     |        .       |              [4]: 0 serial (null) 0xfd8-0xfd8.7 (1)
      |                                               |                |            contents[0:5]: 0xfd9-0xff7.7 (31)
0x0fd0|                           69 6e 64 65 78      |         index  |              [0]: "index" value 0xfd9-0xfdd.7 (5)
0x0fd0|                                          73 71|              sq|              [1]: "sqlite_autoindex_aaa_1" value 0xfde-0xff3.7 (22)
0x0fe0|6c 69 74 65 5f 61 75 74 6f 69 6e 64 65 78 5f 61|lite_autoindex_a|
0x0ff0|61 61 5f 31                                    |aa_1            |
0x0ff0|            61 61 61                           |    aaa         |              [2]: "aaa" value 0xff4-0xff6.7 (3)
0x0ff0|                     03                        |       .        |              [3]: 3 value 0xff7-0xff7.7 (1)
      |                                               |                |              [4]: null value 0xff8-NA (0)
      |                                               |                |        [2]{}: cell 0xf06-0xf57.7 (82)
0x0f00|                  50                           |      P         |          payload_len: 80 0xf06-0xf06.7 (1)
0x0f00|                     03                        |       .        |          rowid: 3 0xf07-0xf07.7 (1)
      |                                               |                |          payload{}: 0xf08-0xf57.7 (80)
0x0f00|                        07                     |        .       |            length: 7 0xf08-0xf08.7 (1)
      |                                               |                |            serials[0:5]: 0xf09-0xf0e.7 (6)
0x0f00|                           17                  |         .      |              [0]: 23 serial (text) 0xf09-0xf09.7 (1)
0x0f00|                              13               |          .     |              [1]: 19 serial (text) 0xf0a-0xf0a.7 (1)
0x0f00|                                 13            |           .    |              [2]: 19 serial (text) 0xf0b-0xf0b.7 (1)
0x0f00|                                    01         |            .   |              [3]: 1 serial (int8) 0xf0c-0xf0c.7 (1)
0x0f00|                                       81 07   |             .. |              [4]: 135 serial (text) 0xf0d-0xf0e.7 (2)
      |                                               |                |            contents[0:5]: 0xf0f-0xf57.7 (73)
0x0f00|                                             74|               t|              [0]: "table" value 0xf0f-0xf13.7 (5)
0x0f10|61 62 6c 65                                    |able            |
0x0f10|            62 62 62                           |    bbb         |              [1]: "bbb" value 0xf14-0xf16.7 (3)
0x0f10|                     62 62 62                  |       bbb      |              [2]: "bbb" value 0xf17-0xf19.7 (3)
0x0f10|                              04               |          .     |              [3]: 4 value 0xf1a-0xf1a.7 (1)
0x0f10|                                 43 52 45 41 54|           CREAT|              [4]: "CREATE TABLE bbb (\n    cint int primary key,\n    c"... value 0xf1b-0xf57.7 (61)
0x0f20|45 20 54 41 42 4c 45 20 62 62 62 20 28 0a 20 20|E TABLE bbb (.  |
*     |until 0xf57.7 (61)                             |                |
      |                                               |                |        [3]{}: cell 0xf58-0xf7e.7 (39)
0x0f50|                        25                     |        %       |          payload_len: 37 0xf58-0xf58.7 (1)
0x0f50|                           04                  |         .      |          rowid: 4 0xf59-0xf59.7 (1)
      |                                               |                |          payload{}: 0xf5a-0xf7e.7 (37)
0x0f50|                              06               |          .     |            length: 6 0xf5a-0xf5a.7 (1)
      |                                               |                |            serials[0:5]: 0xf5b-0xf5f.7 (5)
0x0f50|                                 17            |           .    |              [0]: 23 serial (text) 0xf5b-0xf5b.7 (1)
0x0f50|                                    39         |            9   |              [1]: 57 serial (text) 0xf5c-0xf5c.7 (1)
0x0f50|                                       13      |             .  |              [2]: 19 serial (text) 0xf5d-0xf5d.7 (1)
0x0f50|                                          01   |              . |              [3]: 1 serial (int8) 0xf5e-0xf5e.7 (1)
0x0f50|                                             00|               .|              [4]: 0 serial (null) 0xf5f-0xf5f.7 (1)
      |                                               |                |            contents[0:5]: 0xf60-0xf7e.7 (31)
0x0f60|69 6e 64 65 78                                 |index           |              [0]: "index" value 0xf60-0xf64.7 (5)
0x0f60|               73 71 6c 69 74 65 5f 61 75 74 6f|     sqlite_auto|              [1]: "sqlite_autoindex_bbb_1" value 0xf65-0xf7a.7 (22)
0x0f70|69 6e 64 65 78 5f 62 62 62 5f 31               |index_bbb_1     |
0x0f70|                                 62 62 62      |           bbb  |              [2]: "bbb" value 0xf7b-0xf7d.7 (3)
0x0f70|                                          05   |              . |              [3]: 5 value 0xf7e-0xf7e.7 (1)
      |                                               |                |              [4]: null value 0xf7f-NA (0)
      |                                               |                |        [4]{}: cell 0xe8d-0xede.7 (82)
0x0e80|                                       50      |             P  |          payload_len: 80 0xe8d-0xe8d.7 (1)
0x0e80|                                          05   |              . |          rowid: 5 0xe8e-0xe8e.7 (1)
      |                                               |                |          payload{}: 0xe8f-0xede.7 (80)
0x0e80|                                             07|               .|            length: 7 0xe8f-0xe8f.7 (1)
      |                                               |                |            serials[0:5]: 0xe90-0xe95.7 (6)
0x0e90|17                                             |.               |              [0]: 23 serial (text) 0xe90-0xe90.7 (1)
0x0e90|   13                                          | .              |              [1]: 19 serial (text) 0xe91-0xe91.7 (1)
0x0e90|      13                                       |  .             |              [2]: 19 serial (text) 0xe92-0xe92.7 (1)
0x0e90|         01                                    |   .            |              [3]: 1 serial (int8) 0xe93-0xe93.7 (1)
0x0e90|            81 07                              |    ..          |              [4]: 135 serial (text) 0xe94-0xe95.7 (2)
      |                                               |                |            contents[0:5]: 0xe96-0xede.7 (73)
0x0e90|                  74 61 62 6c 65               |      table     |              [0]: "table" value 0xe96-0xe9a.7 (5)
0x0e90|                                 63 63 63      |           ccc  |              [1]: "ccc" value 0xe9b-0xe9d.7 (3)
0x0e90|                                          63 63|              cc|              [2]: "ccc" value 0xe9e-0xea0.7 (3)
0x0ea0|63                                             |c               |
0x0ea0|   06                                          | .              |              [3]: 6 value 0xea1-0xea1.7 (1)
0x0ea0|      43 52 45 41 54 45 20 54 41 42 4c 45 20 63|  CREATE TABLE c|              [4]: "CREATE TABLE ccc (\n    cint int primary key,\n    c"... value 0xea2-0xede.7 (61)
0x0eb0|63 63 20 28 0a 20 20 20 20 63 69 6e 74 20 69 6e|cc (.    cint in|
*     |until 0xede.7 (61)                             |                |
      |                                               |                |        [5]{}: cell 0xedf-0xf05.7 (39)
0x0ed0|                                             25|               %|          payload_len: 37 0xedf-0xedf.7 (1)
0x0ee0|06                                             |.               |          rowid: 6 0xee0-0xee0.7 (1)
      |                                               |                |          payload{}: 0xee1-0xf05.7 (37)
0x0ee0|   06                                          | .              |            length: 6 0xee1-0xee1.7 (1)
      |                                               |                |            serials[0:5]: 0xee2-0xee6.7 (5)
0x0ee0|      17                                       |  .             |              [0]: 23 serial (text) 0xee2-0xee2.7 (1)
0x0ee0|         39                                    |   9            |              [1]: 57 serial (text) 0xee3-0xee3.7 (1)
0x0ee0|            13                                 |    .           |              [2]: 19 serial (text) 0xee4-0xee4.7 (1)
0x0ee0|               01                              |     .          |              [3]: 1 serial (int8) 0xee5-0xee5.7 (1)
0x0ee0|                  00                           |      .         |              [4]: 0 serial (null) 0xee6-0xee6.7 (1)
      |                                               |                |            contents[0:5]: 0xee7-0xf05.7 (31)
0x0ee0|                     69 6e 64 65 78            |       index    |              [0]: "index" value 0xee7-0xeeb.7 (5)
0x0ee0|                                    73 71 6c 69|            sqli|              [1]: "sqlite_autoindex_ccc_1" value 0xeec-0xf01.7 (22)
0x0ef0|74 65 5f 61 75 74 6f 69 6e 64 65 78 5f 63 63 63|te_autoindex_ccc|
0x0f00|5f 31                                          |_1              |
0x0f00|      63 63 63                                 |  ccc           |              [2]: "ccc" value 0xf02-0xf04.7 (3)
0x0f00|               07                              |     .          |              [3]: 7 value 0xf05-0xf05.7 (1)
      |                                               |                |              [4]: null value 0xf06-NA (0)
      |                                               |                |      freeblocks[0:1]: 0xff8-0xff9.7 (2)
      |                                               |                |        [0]{}: freeblock 0xff8-0xff9.7 (2)
0x0ff0|                        00 00                  |        ..      |          next_offset: 0 0xff8-0xff9.7 (2)
      |                                               |                |    [2]{}: page 0x1000-0x1fff.7 (4096)
0x1000|0d                                             |.               |      type: "table_leaf" (13) 0x1000-0x1000.7 (1)
0x1000|   00 00                                       | ..             |      start_freeblocks: 0 0x1001-0x1002.7 (2)
0x1000|         00 01                                 |   ..           |      page_cells: 1 0x1003-0x1004.7 (2)
0x1000|               0f f3                           |     ..         |      cell_start: 4083 0x1005-0x1006.7 (2)
0x1000|                     00                        |       .        |      cell_fragments: 0 0x1007-0x1007.7 (1)
      |                                               |                |      cells_pointers[0:1]: 0x1008-0x1009.7 (2)
0x1000|                        0f f3                  |        ..      |        [0]: 4083 pointer 0x1008-0x1009.7 (2)
      |                                               |                |      cells[0:1]: 0x1ff3-0x1fff.7 (13)
      |                                               |                |        [0]{}: cell 0x1ff3-0x1fff.7 (13)
0x1ff0|         0b                                    |   .            |          payload_len: 11 0x1ff3-0x1ff3.7 (1)
0x1ff0|            01                                 |    .           |          rowid: 1 0x1ff4-0x1ff4.7 (1)
      |                                               |                |          payload{}: 0x1ff5-0x1fff.7 (11)
0x1ff0|               03                              |     .          |            length: 3 0x1ff5-0x1ff5.7 (1)
      |                                               |                |            serials[0:2]: 0x1ff6-0x1ff7.7 (2)
0x1ff0|                  01                           |      .         |              [0]: 1 serial (int8) 0x1ff6-0x1ff6.7 (1)
0x1ff0|                     1b                        |       .        |              [1]: 27 serial (text) 0x1ff7-0x1ff7.7 (1)
      |                                               |                |            contents[0:2]: 0x1ff8-0x1fff.7 (8)
0x1ff0|                        7b                     |        {       |              [0]: 123 value 0x1ff8-0x1ff8.7 (1)
0x1ff0|                           41 41 41 41 41 41 41|         AAAAAAA|              [1]: "AAAAAAA" value 0x1ff9-0x1fff.7 (7)
      |                                               |                |    [3]{}: page 0x2000-0x2fff.7 (4096)
0x2000|0a                                             |.               |      type: "index_leaf" (10) 0x2000-0x2000.7 (1)
0x2000|   00 00                                       | ..             |      start_freeblocks: 0 0x2001-0x2002.7 (2)
0x2000|         00 01                                 |   ..           |      page_cells: 1 0x2003-0x2004.7 (2)
0x2000|               0f fb                           |     ..         |      cell_start: 4091 0x2005-0x2006.7 (2)
0x2000|                     00                        |       .        |      cell_fragments: 0 0x2007-0x2007.7 (1)
      |                                               |                |      cells_pointers[0:1]: 0x2008-0x2009.7 (2)
0x2000|                        0f fb                  |        ..      |        [0]: 4091 pointer 0x2008-0x2009.7 (2)
      |                                               |                |      cells[0:1]: 0x2ffb-0x2fff.7 (5)
      |                                               |                |        [0]{}: cell 0x2ffb-0x2fff.7 (5)
0x2ff0|                                 04            |           .    |          payload_len: 4 0x2ffb-0x2ffb.7 (1)
      |                                               |                |          payload{}: 0x2ffc-0x2fff.7 (4)
0x2ff0|                                    03         |            .   |            length: 3 0x2ffc-0x2ffc.7 (1)
      |                                               |                |            serials[0:2]: 0x2ffd-0x2ffe.7 (2)
0x2ff0|                                       01      |             .  |              [0]: 1 serial (int8) 0x2ffd-0x2ffd.7 (1)
0x2ff0|                                          09   |              . |              [1]: 9 serial (one) 0x2ffe-0x2ffe.7 (1)
      |                                               |                |            contents[0:2]: 0x2fff-0x2fff.7 (1)
0x2ff0|                                             7b|               {|              [0]: 123 value 0x2fff-0x2fff.7 (1)
      |                                               |                |              [1]: 1 value 0x3000-NA (0)
      |                                               |                |    [4]{}: page 0x3000-0x3fff.7 (4096)
0x3000|0d                                             |.               |      type: "table_leaf" (13) 0x3000-0x3000.7 (1)
0x3000|   00 00                                       | ..             |      start_freeblocks: 0 0x3001-0x3002.7 (2)
0x3000|         00 01                                 |   ..           |      page_cells: 1 0x3003-0x3004.7 (2)
0x3000|               0f f2                           |     ..         |      cell_start: 4082 0x3005-0x3006.7 (2)
0x3000|                     00                        |       .        |      cell_fragments: 0 0x3007-0x3007.7 (1)
      |                                               |                |      cells_pointers[0:1]: 0x3008-0x3009.7 (2)
0x3000|                        0f f2                  |        ..      |        [0]: 4082 pointer 0x3008-0x3009.7 (2)
      |                                               |                |      cells[0:1]: 0x3ff2-0x3fff.7 (14)
      |                                               |                |        [0]{}: cell 0x3ff2-0x3fff.7 (14)
0x3ff0|      0c                                       |  .             |          payload_len: 12 0x3ff2-0x3ff2.7 (1)
0x3ff0|         01                                    |   .            |          rowid: 1 0x3ff3-0x3ff3.7 (1)
      |                                               |                |          payload{}: 0x3ff4-0x3fff.7 (12)
0x3ff0|            03                                 |    .           |            length: 3 0x3ff4-0x3ff4.7 (1)
      |                                               |                |            serials[0:2]: 0x3ff5-0x3ff6.7 (2)
0x3ff0|               02                              |     .          |              [0]: 2 serial (int16) 0x3ff5-0x3ff5.7 (1)
0x3ff0|                  1b                           |      .         |              [1]: 27 serial (text) 0x3ff6-0x3ff6.7 (1)
      |                                               |                |            contents[0:2]: 0x3ff7-0x3fff.7 (9)
0x3ff0|                     01 c8                     |       ..       |              [0]: 456 value 0x3ff7-0x3ff8.7 (2)
0x3ff0|                           42 42 42 42 42 42 42|         BBBBBBB|              [1]: "BBBBBBB" value 0x3ff9-0x3fff.7 (7)
      |                                               |                |    [5]{}: page 0x4000-0x4fff.7 (4096)
0x4000|0a                                             |.               |      type: "index_leaf" (10) 0x4000-0x4000.7 (1)
0x4000|   00 00                                       | ..             |      start_freeblocks: 0 0x4001-0x4002.7 (2)
0x4000|         00 01                                 |   ..           |      page_cells: 1 0x4003-0x4004.7 (2)
0x4000|               0f fa                           |     ..         |      cell_start: 4090 0x4005-0x4006.7 (2)
0x4000|                     00                        |       .        |      cell_fragments: 0 0x4007-0x4007.7 (1)
      |                                               |                |      cells_pointers[0:1]: 0x4008-0x4009.7 (2)
0x4000|                        0f fa                  |        ..      |        [0]: 4090 pointer 0x4008-0x4009.7 (2)
      |                                               |                |      cells[0:1]: 0x4ffa-0x4fff.7 (6)
      |                                               |                |        [0]{}: cell 0x4ffa-0x4fff.7 (6)
0x4ff0|                              05               |          .     |          payload_len: 5 0x4ffa-0x4ffa.7 (1)
      |                                               |                |          payload{}: 0x4ffb-0x4fff.7 (5)
0x4ff0|                                 03            |           .    |            length: 3 0x4ffb-0x4ffb.7 (1)
      |                                               |                |            serials[0:2]: 0x4ffc-0x4ffd.7 (2)
0x4ff0|                                    02         |            .   |              [0]: 2 serial (int16) 0x4ffc-0x4ffc.7 (1)
0x4ff0|                                       09      |             .  |              [1]: 9 serial (one) 0x4ffd-0x4ffd.7 (1)
      |                                               |                |            contents[0:2]: 0x4ffe-0x4fff.7 (2)
0x4ff0|                                          01 c8|              ..|              [0]: 456 value 0x4ffe-0x4fff.7 (2)
      |                                               |                |              [1]: 1 value 0x5000-NA (0)
      |                                               |                |    [6]{}: page 0x5000-0x5fff.7 (4096)
0x5000|0d                                             |.               |      type: "table_leaf" (13) 0x5000-0x5000.7 (1)
0x5000|   00 00                                       | ..             |      start_freeblocks: 0 0x5001-0x5002.7 (2)
0x5000|         00 01                                 |   ..           |      page_cells: 1 0x5003-0x5004.7 (2)
0x5000|               0f f2                           |     ..         |      cell_start: 4082 0x5005-0x5006.7 (2)
0x5000|                     00                        |       .        |      cell_fragments: 0 0x5007-0x5007.7 (1)
      |                                               |                |      cells_pointers[0:1]: 0x5008-0x5009.7 (2)
0x5000|                        0f f2                  |        ..      |        [0]: 4082 pointer 0x5008-0x5009.7 (2)
      |                                               |                |      cells[0:1]: 0x5ff2-0x5fff.7 (14)
      |                                               |                |        [0]{}: cell 0x5ff2-0x5fff.7 (14)
0x5ff0|      0c                                       |  .             |          payload_len: 12 0x5ff2-0x5ff2.7 (1)
0x5ff0|         01                                    |   .            |          rowid: 1 0x5ff3-0x5ff3.7 (1)
      |                                               |                |          payload{}: 0x5ff4-0x5fff.7 (12)
0x5ff0|            03                                 |    .           |            length: 3 0x5ff4-0x5ff4.7 (1)
      |                                               |                |            serials[0:2]: 0x5ff5-0x5ff6.7 (2)
0x5ff0|               02                              |     .          |              [0]: 2 serial (int16) 0x5ff5-0x5ff5.7 (1)
0x5ff0|                  1b                           |      .         |              [1]: 27 serial (text) 0x5ff6-0x5ff6.7 (1)
      |                                               |                |            contents[0:2]: 0x5ff7-0x5fff.7 (9)
0x5ff0|                     03 15                     |       ..       |              [0]: 789 value 0x5ff7-0x5ff8.7 (2)
0x5ff0|                           43 43 43 43 43 43 43|         CCCCCCC|              [1]: "CCCCCCC" value 0x5ff9-0x5fff.7 (7)
      |                                               |                |    [7]{}: page 0x6000-0x6fff.7 (4096)
0x6000|0a                                             |.               |      type: "index_leaf" (10) 0x6000-0x6000.7 (1)
0x6000|   00 00                                       | ..             |      start_freeblocks: 0 0x6001-0x6002.7 (2)
0x6000|         00 01                                 |   ..           |      page_cells: 1 0x6003-0x6004.7 (2)
0x6000|               0f fa                           |     ..         |      cell_start: 4090 0x6005-0x6006.7 (2)
0x6000|                     00                        |       .        |      cell_fragments: 0 0x6007-0x6007.7 (1)
      |                                               |                |      cells_pointers[0:1]: 0x6008-0x6009.7 (2)
0x6000|                        0f fa                  |        ..      |        [0]: 4090 pointer 0x6008-0x6009.7 (2)
      |                                               |                |      cells[0:1]: 0x6ffa-0x6fff.7 (6)
      |                                               |                |        [0]{}: cell 0x6ffa-0x6fff.7 (6)
0x6ff0|                              05               |          .     |          payload_len: 5 0x6ffa-0x6ffa.7 (1)
      |                                               |                |          payload{}: 0x6ffb-0x6fff.7 (5)
0x6ff0|                                 03            |           .    |            length: 3 0x6ffb-0x6ffb.7 (1)
      |                                               |                |            serials[0:2]: 0x6ffc-0x6ffd.7 (2)
0x6ff0|                                    02         |            .   |              [0]: 2 serial (int16) 0x6ffc-0x6ffc.7 (1)
0x6ff0|                                       09      |             .  |              [1]: 9 serial (one) 0x6ffd-0x6ffd.7 (1)
      |                                               |                |            contents[0:2]: 0x6ffe-0x6fff.7 (2)
0x6ff0|                                          03 15|              ..|              [0]: 789 value 0x6ffe-0x6fff.7 (2)
      |                                               |                |              [1]: 1 value 0x7000-NA (0)
0x0070|                        00 00 00 00 00 00 00 00|        ........|  unknown0: raw bits 0x78-0xe8c.7 (3605)
0x0080|00 00 00 00 00 00 00 00 00 00 00 00 00 00 00 00|................|
*     |until 0xe8c.7 (3605)                           |                |
0x0ff0|                              00 08 00 00 00 00|          ......|  unknown1: raw bits 0xffa-0xfff.7 (6)
0x1000|                              00 00 00 00 00 00|          ......|  unknown2: raw bits 0x100a-0x1ff2.7 (4073)
0x1010|00 00 00 00 00 00 00 00 00 00 00 00 00 00 00 00|................|
*     |until 0x1ff2.7 (4073)                          |                |
0x2000|                              00 00 00 00 00 00|          ......|  unknown3: raw bits 0x200a-0x2ffa.7 (4081)
0x2010|00 00 00 00 00 00 00 00 00 00 00 00 00 00 00 00|................|
*     |until 0x2ffa.7 (4081)                          |                |
0x3000|                              00 00 00 00 00 00|          ......|  unknown4: raw bits 0x300a-0x3ff1.7 (4072)
0x3010|00 00 00 00 00 00 00 00 00 00 00 00 00 00 00 00|................|
*     |until 0x3ff1.7 (4072)                          |                |
0x4000|                              00 00 00 00 00 00|          ......|  unknown5: raw bits 0x400a-0x4ff9.7 (4080)
0x4010|00 00 00 00 00 00 00 00 00 00 00 00 00 00 00 00|................|
*     |until 0x4ff9.7 (4080)                          |                |
0x5000|                              00 00 00 00 00 00|          ......|  unknown6: raw bits 0x500a-0x5ff1.7 (4072)
0x5010|00 00 00 00 00 00 00 00 00 00 00 00 00 00 00 00|................|
*     |until 0x5ff1.7 (4072)                          |                |
0x6000|                              00 00 00 00 00 00|          ......|  unknown7: raw bits 0x600a-0x6ff9.7 (4080)
0x6010|00 00 00 00 00 00 00 00 00 00 00 00 00 00 00 00|................|
*     |until 0x6ff9.7 (4080)                          |                |
{
  "aaa": [
    [
      123,
      "AAAAAAA"
    ]
  ],
  "bbb": [
    [
      456,
      "BBBBBBB"
    ]
  ],
  "ccc": [
    [
      789,
      "CCCCCCC"
    ]
  ]
}
