$ fq 'dv, torepr' page_overflow.sql.db
       |00 01 02 03 04 05 06 07 08 09 0a 0b 0c 0d 0e 0f|0123456789abcdef|.{}: page_overflow.sql.db (sqlite3) 0x0-0x3fff.7 (16384)
       |                                               |                |  header{}: 0x0-0x63.7 (100)
0x00000|53 51 4c 69 74 65 20 66 6f 72 6d 61 74 20 33 00|SQLite format 3.|    magic: "SQLite format 3\x00" (valid) 0x0-0xf.7 (16)
0x00010|10 00                                          |..              |    page_size: 4096 0x10-0x11.7 (2)
0x00010|      01                                       |  .             |    write_version: "legacy" (1) 0x12-0x12.7 (1)
0x00010|         01                                    |   .            |    read_version: "legacy" (1) 0x13-0x13.7 (1)
0x00010|            00                                 |    .           |    unused_space: 0 0x14-0x14.7 (1)
0x00010|               40                              |     @          |    maximum_embedded_payload_fraction: 64 0x15-0x15.7 (1)
0x00010|                  20                           |                |    minimum_embedded_payload_fraction: 32 0x16-0x16.7 (1)
0x00010|                     20                        |                |    leaf_payload_fraction: 32 0x17-0x17.7 (1)
0x00010|                        00 00 00 02            |        ....    |    file_change_counter: 2 0x18-0x1b.7 (4)
0x00010|                                    00 00 00 04|            ....|    database_size_pages: 4 0x1c-0x1f.7 (4)
0x00020|00 00 00 00                                    |....            |    page_number_freelist: 0 0x20-0x23.7 (4)
0x00020|            00 00 00 00                        |    ....        |    total_number_freelist: 0 0x24-0x27.7 (4)
0x00020|                        00 00 00 01            |        ....    |    schema_cookie: 1 0x28-0x2b.7 (4)
0x00020|                                    00 00 00 04|            ....|    schema_format_number: 4 0x2c-0x2f.7 (4)
0x00030|00 00 00 00                                    |....            |    default_page_cache_size: 0 0x30-0x33.7 (4)
0x00030|            00 00 00 00                        |    ....        |    page_number_largest_root_btree: 0 0x34-0x37.7 (4)
0x00030|                        00 00 00 01            |        ....    |    text_encoding: "utf8" (1) 0x38-0x3b.7 (4)
0x00030|                                    00 00 00 00|            ....|    user_version: 0 0x3c-0x3f.7 (4)
0x00040|00 00 00 00                                    |....            |    incremental_vacuum_mode: 0 0x40-0x43.7 (4)
0x00040|            00 00 00 00                        |    ....        |    application_id: 0 0x44-0x47.7 (4)
0x00040|                        00 00 00 00 00 00 00 00|        ........|    reserved: raw bits (all zero) 0x48-0x5b.7 (20)
0x00050|00 00 00 00 00 00 00 00 00 00 00 00            |............    |
0x00050|                                    00 00 00 02|            ....|    version_valid_for: 2 0x5c-0x5f.7 (4)
0x00060|00 2e 53 60                                    |..S`            |    sqlite_version_number: 3036000 0x60-0x63.7 (4)
       |                                               |                |  pages[0:5]: 0x64-0x3ffc.7 (16281)
       |                                               |                |    [0]{}: page 0x64-NA (0)
       |                                               |                |      type: "page0_index_fill" 0x64-NA (0)
       |                                               |                |    [1]{}: page 0x64-0xff9.7 (3990)
0x00060|            0d                                 |    .           |      type: "table_leaf" (13) 0x64-0x64.7 (1)
0x00060|               0f f8                           |     ..         |      start_freeblocks: 4088 0x65-0x66.7 (2)
0x00060|                     00 02                     |       ..       |      page_cells: 2 0x67-0x68.7 (2)
0x00060|                           0f 4d               |         .M     |      cell_start: 3917 0x69-0x6a.7 (2)
0x00060|                                 00            |           .    |      cell_fragments: 0 0x6b-0x6b.7 (1)
       |                                               |                |      cells_pointers[0:2]: 0x6c-0x6f.7 (4)
0x00060|                                    0f 4d      |            .M  |        [0]: 3917 pointer 0x6c-0x6d.7 (2)
0x00060|                                          0f bd|              ..|        [1]: 4029 pointer 0x6e-0x6f.7 (2)
       |                                               |                |      cells[0:2]: 0xf4d-0xff7.7 (171)
       |                                               |                |        [0]{}: cell 0xf4d-0xfbc.7 (112)
0x00f40|                                       6e      |             n  |          payload_len: 110 0xf4d-0xf4d.7 (1)
0x00f40|                                          01   |              . |          rowid: 1 0xf4e-0xf4e.7 (1)
       |                                               |                |          payload{}: 0xf4f-0xfbc.7 (110)
0x00f40|                                             07|               .|            length: 7 0xf4f-0xf4f.7 (1)
       |                                               |                |            serials[0:5]: 0xf50-0xf55.7 (6)
0x00f50|17                                             |.               |              [0]: 23 serial (text) 0xf50-0xf50.7 (1)
0x00f50|   27                                          | '              |              [1]: 39 serial (text) 0xf51-0xf51.7 (1)
0x00f50|      27                                       |  '             |              [2]: 39 serial (text) 0xf52-0xf52.7 (1)
0x00f50|         01                                    |   .            |              [3]: 1 serial (int8) 0xf53-0xf53.7 (1)
0x00f50|            81 1b                              |    ..          |              [4]: 155 serial (text) 0xf54-0xf55.7 (2)
       |                                               |                |            contents[0:5]: 0xf56-0xfbc.7 (103)
0x00f50|                  74 61 62 6c 65               |      table     |              [0]: "table" value 0xf56-0xf5a.7 (5)
0x00f50|                                 6f 76 65 72 66|           overf|              [1]: "overflow_test" value 0xf5b-0xf67.7 (13)
0x00f60|6c 6f 77 5f 74 65 73 74                        |low_test        |
0x00f60|                        6f 76 65 72 66 6c 6f 77|        overflow|              [2]: "overflow_test" value 0xf68-0xf74.7 (13)
0x00f70|5f 74 65 73 74                                 |_test           |
0x00f70|               02                              |     .          |              [3]: 2 value 0xf75-0xf75.7 (1)
0x00f70|                  43 52 45 41 54 45 20 54 41 42|      CREATE TAB|              [4]: "CREATE TABLE overflow_test (\n    cint int primary "... value 0xf76-0xfbc.7 (71)
0x00f80|4c 45 20 6f 76 65 72 66 6c 6f 77 5f 74 65 73 74|LE overflow_test|
*      |until 0xfbc.7 (71)                             |                |
       |                                               |                |        [1]{}: cell 0xfbd-0xff7.7 (59)
0x00fb0|                                       39      |             9  |          payload_len: 57 0xfbd-0xfbd.7 (1)
0x00fb0|                                          02   |              . |          rowid: 2 0xfbe-0xfbe.7 (1)
       |                                               |                |          payload{}: 0xfbf-0xff7.7 (57)
0x00fb0|                                             06|               .|            length: 6 0xfbf-0xfbf.7 (1)
       |                                               |                |            serials[0:5]: 0xfc0-0xfc4.7 (5)
0x00fc0|17                                             |.               |              [0]: 23 serial (text) 0xfc0-0xfc0.7 (1)
0x00fc0|   4d                                          | M              |              [1]: 77 serial (text) 0xfc1-0xfc1.7 (1)
0x00fc0|      27                                       |  '             |              [2]: 39 serial (text) 0xfc2-0xfc2.7 (1)
0x00fc0|         01                                    |   .            |              [3]: 1 serial (int8) 0xfc3-0xfc3.7 (1)
0x00fc0|            00                                 |    .           |              [4]: 0 serial (null) 0xfc4-0xfc4.7 (1)
       |                                               |                |            contents[0:5]: 0xfc5-0xff7.7 (51)
0x00fc0|               69 6e 64 65 78                  |     index      |              [0]: "index" value 0xfc5-0xfc9.7 (5)
0x00fc0|                              73 71 6c 69 74 65|          sqlite|              [1]: "sqlite_autoindex_overflow_test_1" value 0xfca-0xfe9.7 (32)
0x00fd0|5f 61 75 74 6f 69 6e 64 65 78 5f 6f 76 65 72 66|_autoindex_overf|
0x00fe0|6c 6f 77 5f 74 65 73 74 5f 31                  |low_test_1      |
0x00fe0|                              6f 76 65 72 66 6c|          overfl|              [2]: "overflow_test" value 0xfea-0xff6.7 (13)
0x00ff0|6f 77 5f 74 65 73 74                           |ow_test         |
0x00ff0|                     03                        |       .        |              [3]: 3 value 0xff7-0xff7.7 (1)
       |                                               |                |              [4]: null value 0xff8-NA (0)
       |                                               |                |      freeblocks[0:1]: 0xff8-0xff9.7 (2)
       |                                               |                |        [0]{}: freeblock 0xff8-0xff9.7 (2)
0x00ff0|                        00 00                  |        ..      |          next_offset: 0 0xff8-0xff9.7 (2)
       |                                               |                |    [2]{}: page 0x1000-0x3e25.7 (11814)
0x01000|0d                                             |.               |      type: "table_leaf" (13) 0x1000-0x1000.7 (1)
0x01000|   00 00                                       | ..             |      start_freeblocks: 0 0x1001-0x1002.7 (2)
0x01000|         00 01                                 |   ..           |      page_cells: 1 0x1003-0x1004.7 (2)
0x01000|               0e 10                           |     ..         |      cell_start: 3600 0x1005-0x1006.7 (2)
0x01000|                     00                        |       .        |      cell_fragments: 0 0x1007-0x1007.7 (1)
       |                                               |                |      cells_pointers[0:1]: 0x1008-0x1009.7 (2)
0x01000|                        0e 10                  |        ..      |        [0]: 3600 pointer 0x1008-0x1009.7 (2)
       |                                               |                |      cells[0:1]: 0x1e10-0x3e25.7 (8214)
       |                                               |                |        [0]{}: cell 0x1e10-0x3e25.7 (8214)
       |                                               |                |          payload{}: 0x0-0x100a.7 (4107)
 0x0000|04                                             |.               |            length: 4 0x0-0x0.7 (1)
       |                                               |                |            serials[0:2]: 0x1-0x3.7 (3)
 0x0000|   01                                          | .              |              [0]: 1 serial (int8) 0x1-0x1.7 (1)
 0x0000|      c0 19                                    |  ..            |              [1]: 8217 serial (text) 0x2-0x3.7 (2)
       |                                               |                |            contents[0:2]: 0x4-0x100a.7 (4103)
 0x0000|            7b                                 |    {           |              [0]: 123 value 0x4-0x4.7 (1)
 0x0000|               41 42 42 42 42 42 42 42 42 42 42|     ABBBBBBBBBB|              [1]: "ABBBBBBBBBBBBBBBBBBBBBBBBBBBBBBBBBBBBBBBBBBBBBBBBB"... value 0x5-0x100a.7 (4102)
 0x0010|42 42 42 42 42 42 42 42 42 42 42 42 42 42 42 42|BBBBBBBBBBBBBBBB|
 *     |until 0x100a.7 (end) (4102)                    |                |
0x01e10|a0 0b                                          |..              |          payload_len: 4107 0x1e10-0x1e11.7 (2)
0x01e10|      01                                       |  .             |          rowid: 1 0x1e12-0x1e12.7 (1)
       |                                               |                |          overflow_pages[0:2]: 0x1e13-0x3e25.7 (8211)
       |                                               |                |            [0]{}: overflow_page 0x1e13-0x1fff.7 (493)
0x01e10|         04 01 c0 19 7b 41 42 42 42 42 42 42 42|   ....{ABBBBBBB|              data: raw bits 0x1e13-0x1ffb.7 (489)
0x01e20|42 42 42 42 42 42 42 42 42 42 42 42 42 42 42 42|BBBBBBBBBBBBBBBB|
*      |until 0x1ffb.7 (489)                           |                |
0x01ff0|                                    00 00 00 04|            ....|              next_page: 4 0x1ffc-0x1fff.7 (4)
       |                                               |                |            [1]{}: overflow_page 0x3000-0x3e25.7 (3622)
0x03000|00 00 00 00                                    |....            |              next_page: 0 0x3000-0x3003.7 (4)
0x03000|            42 42 42 42 42 42 42 42 42 42 42 42|    BBBBBBBBBBBB|              data: raw bits 0x3004-0x3e25.7 (3618)
0x03010|42 42 42 42 42 42 42 42 42 42 42 42 42 42 42 42|BBBBBBBBBBBBBBBB|
*      |until 0x3e25.7 (3618)                          |                |
       |                                               |                |    [3]{}: page 0x2000-0x2fff.7 (4096)
0x02000|0a                                             |.               |      type: "index_leaf" (10) 0x2000-0x2000.7 (1)
0x02000|   00 00                                       | ..             |      start_freeblocks: 0 0x2001-0x2002.7 (2)
0x02000|         00 01                                 |   ..           |      page_cells: 1 0x2003-0x2004.7 (2)
0x02000|               0f fb                           |     ..         |      cell_start: 4091 0x2005-0x2006.7 (2)
0x02000|                     00                        |       .        |      cell_fragments: 0 0x2007-0x2007.7 (1)
       |                                               |                |      cells_pointers[0:1]: 0x2008-0x2009.7 (2)
0x02000|                        0f fb                  |        ..      |        [0]: 4091 pointer 0x2008-0x2009.7 (2)
       |                                               |                |      cells[0:1]: 0x2ffb-0x2fff.7 (5)
       |                                               |                |        [0]{}: cell 0x2ffb-0x2fff.7 (5)
0x02ff0|                                 04            |           .    |          payload_len: 4 0x2ffb-0x2ffb.7 (1)
       |                                               |                |          payload{}: 0x2ffc-0x2fff.7 (4)
0x02ff0|                                    03         |            .   |            length: 3 0x2ffc-0x2ffc.7 (1)
       |                                               |                |            serials[0:2]: 0x2ffd-0x2ffe.7 (2)
0x02ff0|                                       01      |             .  |              [0]: 1 serial (int8) 0x2ffd-0x2ffd.7 (1)
0x02ff0|                                          09   |              . |              [1]: 9 serial (one) 0x2ffe-0x2ffe.7 (1)
       |                                               |                |            contents[0:2]: 0x2fff-0x2fff.7 (1)
0x02ff0|                                             7b|               {|              [0]: 123 value 0x2fff-0x2fff.7 (1)
       |                                               |                |              [1]: 1 value 0x3000-NA (0)
       |                                               |                |    [4]{}: page 0x3000-0x3ffc.7 (4093)
0x03000|00                                             |.               |      type: 0 0x3000-0x3000.7 (1)
0x03000|   00 00 00 42 42 42 42 42 42 42 42 42 42 42 42| ...BBBBBBBBBBBB|      data: raw bits 0x3001-0x3ffc.7 (4092)
0x03010|42 42 42 42 42 42 42 42 42 42 42 42 42 42 42 42|BBBBBBBBBBBBBBBB|
*      |until 0x3ffc.7 (4092)                          |                |
0x00070|00 00 00 00 00 00 00 00 00 00 00 00 00 00 00 00|................|  unknown0: raw bits 0x70-0xf4c.7 (3805)
*      |until 0xf4c.7 (3805)                           |                |
0x00ff0|                              00 08 00 00 00 00|          ......|  unknown1: raw bits 0xffa-0xfff.7 (6)
0x01000|                              00 00 00 00 00 00|          ......|  unknown2: raw bits 0x100a-0x1e0f.7 (3590)
0x01010|00 00 00 00 00 00 00 00 00 00 00 00 00 00 00 00|................|
*      |until 0x1e0f.7 (3590)                          |                |
0x02000|                              00 00 00 00 00 00|          ......|  unknown3: raw bits 0x200a-0x2ffa.7 (4081)
0x02010|00 00 00 00 00 00 00 00 00 00 00 00 00 00 00 00|................|
*      |until 0x2ffa.7 (4081)                          |                |
0x03ff0|                                       00 00 00|             ...|  unknown4: raw bits 0x3ffd-0x3fff.7 (3)
{
  "overflow_test": [
    [
      123,
      "ABBBBBBBBBBBBBBBBBBBBBBBBBBBBBBBBBBBBBBBBBBBBBBBBBBBBBBBBBBBBBBBBBBBBBBBBBBBBBBBBBBBBBBBBBBBBBBBBBBBBBBBBBBBBBBBBBBBBBBBBBBBBBBBBBBBBBBBBBBBBBBBBBBBBBBBBBBBBBBBBBBBBBBBBBBBBBBBBBBBBBBBBBBBBBBBBBBBBBBBBBBBBBBBBBBBBBBBBBBBBBBBBBBBBBBBBBBBBBBBBBBBBBBBBBBBBBBBBBBBBBBBBBBBBBBBBBBBBBBBBBBBBBBBBBBBBBBBBBBBBBBBBBBBBBBBBBBBBBBBBBBBBBBBBBBBBBBBBBBBBBBBBBBBBBBBBBBBBBBBBBBBBBBBBBBBBBBBBBBBBBBBBBBBBBBBBBBBBBBBBBBBBBBBBBBBBBBBBBBBBBBBBBBBBBBBBBBBBBBBBBBBBBBBBBBBBBBBBBBBBBBBBBBBBBBBBBBBBBBBBBBBBBBBBBBBBBBBBBBBBBBBBBBBBBBBBBBBBBBBBBBBBBBBBBBBBBBBBBBBBBBBBBBBBBBBBBBBBBBBBBBBBBBBBBBBBBBBBBBBBBBBBBBBBBBBBBBBBBBBBBBBBBBBBBBBBBBBBBBBBBBBBBBBBBBBBBBBBBBBBBBBBBBBBBBBBBBBBBBBBBBBBBBBBBBBBBBBBBBBBBBBBBBBBBBBBBBBBBBBBBBBBBBBBBBBBBBBBBBBBBBBBBBBBBBBBBBBBBBBBBBBBBBBBBBBBBBBBBBBBBBBBBBBBBBBBBBBBBBBBBBBBBBBBBBBBBBBBBBBBBBBBBBBBBBBBBBBBBBBBBBBBBBBBBBBBBBBBBBBBBBBBBBBBBBBBBBBBBBBBBBBBBBBBBBBBBBBBBBBBBBBBBBBBBBBBBBBBBBBBBBBBBBBBBBBBBBBBBBBBBBBBBBBBBBBBBBBBBBBBBBBBBBBBBBBBBBBBBBBBBBBBBBBBBBBBBBBBBBBBBBBBBBBBBBBBBBBBBBBBBBBBBBBBBBBBBBBBBBBBBBBBBBBBBBBBBBBBBBBBBBBBBBBBBBBBBBBBBBBBBBBBBBBBBBBBBBBBBBBBBBBBBBBBBBBBBBBBBBBBBBBBBBBBBBBBBBBBBBBBBBBBBBBBBBBBBBBBBBBBBBBBBBBBBBBBBBBBBBBBBBBBBBBBBBBBBBBBBBBBBBBBBBBBBBBBBBBBBBBBBBBBBBBBBBBBBBBBBBBBBBBBBBBBBBBBBBBBBBBBBBBBBBBBBBBBBBBBBBBBBBBBBBBBBBBBBBBBBBBBBBBBBBBBBBBBBBBBBBBBBBBBBBBBBBBBBBBBBBBBBBBBBBBBBBBBBBBBBBBBBBBBBBBBBBBBBBBBBBBBBBBBBBBBBBBBBBBBBBBBBBBBBBBBBBBBBBBBBBBBBBBBBBBBBBBBBBBBBBBBBBBBBBBBBBBBBBBBBBBBBBBBBBBBBBBBBBBBBBBBBBBBBBBBBBBBBBBBBBBBBBBBBBBBBBBBBBBBBBBBBBBBBBBBBBBBBBBBBBBBBBBBBBBBBBBBBBBBBBBBBBBBBBBBBBBBBBBBBBBBBBBBBBBBBBBBBBBBBBBBBBBBBBBBBBBBBBBBBBBBBBBBBBBBBBBBBBBBBBBBBBBBBBBBBBBBBBBBBBBBBBBBBBBBBBBBBBBBBBBBBBBBBBBBBBBBBBBBBBBBBBBBBBBBBBBBBBBBBBBBBBBBBBBBBBBBBBBBBBBBBBBBBBBBBBBBBBBBBBBBBBBBBBBBBBBBBBBBBBBBBBBBBBBBBBBBBBBBBBBBBBBBBBBBBBBBBBBBBBBBBBBBBBBBBBBBBBBBBBBBBBBBBBBBBBBBBBBBBBBBBBBBBBBBBBBBBBBBBBBBBBBBBBBBBBBBBBBBBBBBBBBBBBBBBBBBBBBBBBBBBBBBBBBBBBBBBBBBBBBBBBBBBBBBBBBBBBBBBBBBBBBBBBBBBBBBBBBBBBBBBBBBBBBBBBBBBBBBBBBBBBBBBBBBBBBBBBBBBBBBBBBBBBBBBBBBBBBBBBBBBBBBBBBBBBBBBBBBBBBBBBBBBBBBBBBBBBBBBBBBBBBBBBBBBBBBBBBBBBBBBBBBBBBBBBBBBBBBBBBBBBBBBBBBBBBBBBBBBBBBBBBBBBBBBBBBBBBBBBBBBBBBBBBBBBBBBBBBBBBBBBBBBBBBBBBBBBBBBBBBBBBBBBBBBBBBBBBBBBBBBBBBBBBBBBBBBBBBBBBBBBBBBBBBBBBBBBBBBBBBBBBBBBBBBBBBBBBBBBBBBBBBBBBBBBBBBBBBBBBBBBBBBBBBBBBBBBBBBBBBBBBBBBBBBBBBBBBBBBBBBBBBBBBBBBBBBBBBBBBBBBBBBBBBBBBBBBBBBBBBBBBBBBBBBBBBBBBBBBBBBBBBBBBBBBBBBBBBBBBBBBBBBBBBBBBBBBBBBBBBBBBBBBBBBBBBBBBBBBBBBBBBBBBBBBBBBBBBBBBBBBBBBBBBBBBBBBBBBBBBBBBBBBBBBBBBBBBBBBBBBBBBBBBBBBBBBBBBBBBBBBBBBBBBBBBBBBBBBBBBBBBBBBBBBBBBBBBBBBBBBBBBBBBBBBBBBBBBBBBBBBBBBBBBBBBBBBBBBBBBBBBBBBBBBBBBBBBBBBBBBBBBBBBBBBBBBBBBBBBBBBBBBBBBBBBBBBBBBBBBBBBBBBBBBBBBBBBBBBBBBBBBBBBBBBBBBBBBBBBBBBBBBBBBBBBBBBBBBBBBBBBBBBBBBBBBBBBBBBBBBBBBBBBBBBBBBBBBBBBBBBBBBBBBBBBBBBBBBBBBBBBBBBBBBBBBBBBBBBBBBBBBBBBBBBBBBBBBBBBBBBBBBBBBBBBBBBBBBBBBBBBBBBBBBBBBBBBBBBBBBBBBBBBBBBBBBBBBBBBBBBBBBBBBBBBBBBBBBBBBBBBBBBBBBBBBBBBBBBBBBBBBBBBBBBBBBBBBBBBBBBBBBBBBBBBBBBBBBBBBBBBBBBBBBBBBBBBBBBBBBBBBBBBBBBBBBBBBBBBBBBBBBBBBBBBBBBBBBBBBBBBBBBBBBBBBBBBBBBBBBBBBBBBBBBBBBBBBBBBBBBBBBBBBBBBBBBBBBBBBBBBBBBBBBBBBBBBBBBBBBBBBBBBBBBBBBBBBBBBBBBBBBBBBBBBBBBBBBBBBBBBBBBBBBBBBBBBBBBBBBBBBBBBBBBBBBBBBBBBBBBBBBBBBBBBBBBBBBBBBBBBBBBBBBBBBBBBBBBBBBBBBBBBBBBBBBBBBBBBBBBBBBBBBBBBBBBBBBBBBBBBBBBBBBBBBBBBBBBBBBBBBBBBBBBBBBBBBBBBBBBBBBBBBBBBBBBBBBBBBBBBBBBBBBBBBBBBBBBBBBBBBBBBBBBBBBBBBBBBBBBBBBBBBBBBBBBBBBBBBBBBBBBBBBBBBBBBBBBBBBBBBBBBBBBBBBBBBBBBBBBBBBBBBBBBBBBBBBBBBBBBBBBBBBBBBBBBBBBBBBBBBBBBBBBBBBBBBBBBBBBBBBBBBBBBBBBBBBBBBBBBBBBBBBBBBBBBBBBBBBBBBBBBBBBBBBBBBBBBBBBBBBBBBBBBBBBBBBBBBBBBBBBBBBBBBBBBBBBBBBBBBBBBBBBBBBBBBBBBBBBBBBBBBBBBBBBBBBBBBBBBBBBBBBBBBBBBBBBBBBBBBBBBBBBBBBBBBBBBBBBBBBBBBBBBBBBBBBBBBBBBBBBBBBBBBBBBBBBBBBBBBBBBBBBBBBBBBBBBBBBBBBBBBBBBBBBBBBBBBBBBBBBBBBBBBBBBBBBBBBBBBBBBBBBBBBBBBBBBBBBBBBBBBBBBBBBBBBBBBBBBBBBBBBBBBBBBBBBBBBBBBBBBBBBBBBBBBBBBBBBBBBBBBBBBBBBBBBBBBBBBBBBBBBBBBBBBBBBBBBBBBBBBBBBBBBBBBBBBBBBBBBBBBBBBBBBBBBBBBBBBBBBBBBBBBBBBBBBBBBBBBBBBBBBBBBBBBBBBBBBBBBBBBBBBBBBBBBBBBBBBBBBBBBBBBBBBBBBBBBBBBBBBBBBBBBBBBBBBBBBBBBBBBBBBBBBBBBBBBBBBBBBBBBBBBBBBBBBBBBBBBBBBBBBBBBBBBBBBBBBBBBBBBBBBBBBBBBBBBC"
    ]
  ]
}
