$ fq 'dv, torepr' types.sql.db
      |00 01 02 03 04 05 06 07 08 09 0a 0b 0c 0d 0e 0f|0123456789abcdef|.{}: types.sql.db (sqlite3) 0x0-0x2fff.7 (12288)
      |                                               |                |  header{}: 0x0-0x63.7 (100)
0x0000|53 51 4c 69 74 65 20 66 6f 72 6d 61 74 20 33 00|SQLite format 3.|    magic: "SQLite format 3\x00" (valid) 0x0-0xf.7 (16)
0x0010|10 00                                          |..              |    page_size: 4096 0x10-0x11.7 (2)
0x0010|      01                                       |  .             |    write_version: "legacy" (1) 0x12-0x12.7 (1)
0x0010|         01                                    |   .            |    read_version: "legacy" (1) 0x13-0x13.7 (1)
0x0010|            00                                 |    .           |    unused_space: 0 0x14-0x14.7 (1)
0x0010|               40                              |     @          |    maximum_embedded_payload_fraction: 64 0x15-0x15.7 (1)
0x0010|                  20                           |                |    minimum_embedded_payload_fraction: 32 0x16-0x16.7 (1)
0x0010|                     20                        |                |    leaf_payload_fraction: 32 0x17-0x17.7 (1)
0x0010|                        00 00 00 07            |        ....    |    file_change_counter: 7 0x18-0x1b.7 (4)
0x0010|                                    00 00 00 03|            ....|    database_size_pages: 3 0x1c-0x1f.7 (4)
0x0020|00 00 00 00                                    |....            |    page_number_freelist: 0 0x20-0x23.7 (4)
0x0020|            00 00 00 00                        |    ....        |    total_number_freelist: 0 0x24-0x27.7 (4)
0x0020|                        00 00 00 01            |        ....    |    schema_cookie: 1 0x28-0x2b.7 (4)
0x0020|                                    00 00 00 04|            ....|    schema_format_number: 4 0x2c-0x2f.7 (4)
0x0030|00 00 00 00                                    |....            |    default_page_cache_size: 0 0x30-0x33.7 (4)
0x0030|            00 00 00 00                        |    ....        |    page_number_largest_root_btree: 0 0x34-0x37.7 (4)
0x0030|                        00 00 00 01            |        ....    |    text_encoding: "utf8" (1) 0x38-0x3b.7 (4)
0x0030|                                    00 00 00 00|            ....|    user_version: 0 0x3c-0x3f.7 (4)
0x0040|00 00 00 00                                    |....            |    incremental_vacuum_mode: 0 0x40-0x43.7 (4)
0x0040|            00 00 00 00                        |    ....        |    application_id: 0 0x44-0x47.7 (4)
0x0040|                        00 00 00 00 00 00 00 00|        ........|    reserved: raw bits (all zero) 0x48-0x5b.7 (20)
0x0050|00 00 00 00 00 00 00 00 00 00 00 00            |............    |
0x0050|                                    00 00 00 07|            ....|    version_valid_for: 7 0x5c-0x5f.7 (4)
0x0060|00 2e 53 60                                    |..S`            |    sqlite_version_number: 3036000 0x60-0x63.7 (4)
      |                                               |                |  pages[0:4]: 0x64-0x2fff.7 (12188)
      |                                               |                |    [0]{}: page 0x64-NA (0)
      |                                               |                |      type: "page0_index_fill" 0x64-NA (0)
      |                                               |                |    [1]{}: page 0x64-0xff9.7 (3990)
0x0060|            0d                                 |    .           |      type: "table_leaf" (13) 0x64-0x64.7 (1)
0x0060|               0f f8                           |     ..         |      start_freeblocks: 4088 0x65-0x66.7 (2)
0x0060|                     00 02                     |       ..       |      page_cells: 2 0x67-0x68.7 (2)
0x0060|                           0f 0a               |         ..     |      cell_start: 3850 0x69-0x6a.7 (2)
0x0060|                                 00            |           .    |      cell_fragments: 0 0x6b-0x6b.7 (1)
      |                                               |                |      cells_pointers[0:2]: 0x6c-0x6f.7 (4)
0x0060|                                    0f 0a      |            ..  |        [0]: 3850 pointer 0x6c-0x6d.7 (2)
0x0060|                                          0f cd|              ..|        [1]: 4045 pointer 0x6e-0x6f.7 (2)
      |                                               |                |      cells[0:2]: 0xf0a-0xff7.7 (238)
      |                                               |                |        [0]{}: cell 0xf0a-0xfcc.7 (195)
0x0f00|                              81 40            |          .@    |          payload_len: 192 0xf0a-0xf0b.7 (2)
0x0f00|                                    01         |            .   |          rowid: 1 0xf0c-0xf0c.7 (1)
      |                                               |                |          payload{}: 0xf0d-0xfcc.7 (192)
0x0f00|                                       07      |             .  |            length: 7 0xf0d-0xf0d.7 (1)
      |                                               |                |            serials[0:5]: 0xf0e-0xf13.7 (6)
0x0f00|                                          17   |              . |              [0]: 23 serial (text) 0xf0e-0xf0e.7 (1)
0x0f00|                                             17|               .|              [1]: 23 serial (text) 0xf0f-0xf0f.7 (1)
0x0f10|17                                             |.               |              [2]: 23 serial (text) 0xf10-0xf10.7 (1)
0x0f10|   01                                          | .              |              [3]: 1 serial (int8) 0xf11-0xf11.7 (1)
0x0f10|      82 5f                                    |  ._            |              [4]: 351 serial (text) 0xf12-0xf13.7 (2)
      |                                               |                |            contents[0:5]: 0xf14-0xfcc.7 (185)
0x0f10|            74 61 62 6c 65                     |    table       |              [0]: "table" value 0xf14-0xf18.7 (5)
0x0f10|                           74 79 70 65 73      |         types  |              [1]: "types" value 0xf19-0xf1d.7 (5)
0x0f10|                                          74 79|              ty|              [2]: "types" value 0xf1e-0xf22.7 (5)
0x0f20|70 65 73                                       |pes             |
0x0f20|         02                                    |   .            |              [3]: 2 value 0xf23-0xf23.7 (1)
0x0f20|            43 52 45 41 54 45 20 54 41 42 4c 45|    CREATE TABLE|              [4]: "CREATE TABLE types (\n    cint INT PRIMARY KEY,\n   "... value 0xf24-0xfcc.7 (169)
0x0f30|20 74 79 70 65 73 20 28 0a 20 20 20 20 63 69 6e| types (.    cin|
*     |until 0xfcc.7 (169)                            |                |
      |                                               |                |        [1]{}: cell 0xfcd-0xff7.7 (43)
0x0fc0|                                       29      |             )  |          payload_len: 41 0xfcd-0xfcd.7 (1)
0x0fc0|                                          02   |              . |          rowid: 2 0xfce-0xfce.7 (1)
      |                                               |                |          payload{}: 0xfcf-0xff7.7 (41)
0x0fc0|                                             06|               .|            length: 6 0xfcf-0xfcf.7 (1)
      |                                               |                |            serials[0:5]: 0xfd0-0xfd4.7 (5)
0x0fd0|17                                             |.               |              [0]: 23 serial (text) 0xfd0-0xfd0.7 (1)
0x0fd0|   3d                                          | =              |              [1]: 61 serial (text) 0xfd1-0xfd1.7 (1)
0x0fd0|      17                                       |  .             |              [2]: 23 serial (text) 0xfd2-0xfd2.7 (1)
0x0fd0|         01                                    |   .            |              [3]: 1 serial (int8) 0xfd3-0xfd3.7 (1)
0x0fd0|            00                                 |    .           |              [4]: 0 serial (null) 0xfd4-0xfd4.7 (1)
      |                                               |                |            contents[0:5]: 0xfd5-0xff7.7 (35)
0x0fd0|               69 6e 64 65 78                  |     index      |              [0]: "index" value 0xfd5-0xfd9.7 (5)
0x0fd0|                              73 71 6c 69 74 65|          sqlite|              [1]: "sqlite_autoindex_types_1" value 0xfda-0xff1.7 (24)
0x0fe0|5f 61 75 74 6f 69 6e 64 65 78 5f 74 79 70 65 73|_autoindex_types|
0x0ff0|5f 31                                          |_1              |
0x0ff0|      74 79 70 65 73                           |  types         |              [2]: "types" value 0xff2-0xff6.7 (5)
0x0ff0|                     03                        |       .        |              [3]: 3 value 0xff7-0xff7.7 (1)
      |                                               |                |              [4]: null value 0xff8-NA (0)
      |                                               |                |      freeblocks[0:1]: 0xff8-0xff9.7 (2)
      |                                               |                |        [0]{}: freeblock 0xff8-0xff9.7 (2)
0x0ff0|                        00 00                  |        ..      |          next_offset: 0 0xff8-0xff9.7 (2)
      |                                               |                |    [2]{}: page 0x1000-0x1fff.7 (4096)
0x1000|0d                                             |.               |      type: "table_leaf" (13) 0x1000-0x1000.7 (1)
0x1000|   00 00                                       | ..             |      start_freeblocks: 0 0x1001-0x1002.7 (2)
0x1000|         00 06                                 |   ..           |      page_cells: 6 0x1003-0x1004.7 (2)
0x1000|               0e a7                           |     ..         |      cell_start: 3751 0x1005-0x1006.7 (2)
0x1000|                     00                        |       .        |      cell_fragments: 0 0x1007-0x1007.7 (1)
      |                                               |                |      cells_pointers[0:6]: 0x1008-0x1013.7 (12)
0x1000|                        0f cd                  |        ..      |        [0]: 4045 pointer 0x1008-0x1009.7 (2)
0x1000|                              0f 9a            |          ..    |        [1]: 3994 pointer 0x100a-0x100b.7 (2)
0x1000|                                    0f 63      |            .c  |        [2]: 3939 pointer 0x100c-0x100d.7 (2)
0x1000|                                          0f 2d|              .-|        [3]: 3885 pointer 0x100e-0x100f.7 (2)
0x1010|0e ea                                          |..              |        [4]: 3818 pointer 0x1010-0x1011.7 (2)
0x1010|      0e a7                                    |  ..            |        [5]: 3751 pointer 0x1012-0x1013.7 (2)
      |                                               |                |      cells[0:6]: 0x1ea7-0x1fff.7 (345)
      |                                               |                |        [0]{}: cell 0x1fcd-0x1fff.7 (51)
0x1fc0|                                       31      |             1  |          payload_len: 49 0x1fcd-0x1fcd.7 (1)
0x1fc0|                                          01   |              . |          rowid: 1 0x1fce-0x1fce.7 (1)
      |                                               |                |          payload{}: 0x1fcf-0x1fff.7 (49)
0x1fc0|                                             08|               .|            length: 8 0x1fcf-0x1fcf.7 (1)
      |                                               |                |            serials[0:7]: 0x1fd0-0x1fd6.7 (7)
0x1fd0|08                                             |.               |              [0]: 8 serial (zero) 0x1fd0-0x1fd0.7 (1)
0x1fd0|   08                                          | .              |              [1]: 8 serial (zero) 0x1fd1-0x1fd1.7 (1)
0x1fd0|      15                                       |  .             |              [2]: 21 serial (text) 0x1fd2-0x1fd2.7 (1)
0x1fd0|         17                                    |   .            |              [3]: 23 serial (text) 0x1fd3-0x1fd3.7 (1)
0x1fd0|            07                                 |    .           |              [4]: 7 serial (float64) 0x1fd4-0x1fd4.7 (1)
0x1fd0|               17                              |     .          |              [5]: 23 serial (text) 0x1fd5-0x1fd5.7 (1)
0x1fd0|                  33                           |      3         |              [6]: 51 serial (text) 0x1fd6-0x1fd6.7 (1)
      |                                               |                |            contents[0:7]: 0x1fd7-0x1fff.7 (41)
      |                                               |                |              [0]: 0 value 0x1fd7-NA (0)
      |                                               |                |              [1]: 0 value 0x1fd7-NA (0)
0x1fd0|                     76 61 72 31               |       var1     |              [2]: "var1" value 0x1fd7-0x1fda.7 (4)
0x1fd0|                                 74 65 78 74 31|           text1|              [3]: "text1" value 0x1fdb-0x1fdf.7 (5)
0x1fe0|3f e0 00 00 00 00 00 00                        |?.......        |              [4]: 0.5 value 0x1fe0-0x1fe7.7 (8)
0x1fe0|                        62 6c 6f 62 31         |        blob1   |              [5]: "blob1" value 0x1fe8-0x1fec.7 (5)
0x1fe0|                                       32 30 32|             202|              [6]: "2022-03-10 10:00:00" value 0x1fed-0x1fff.7 (19)
0x1ff0|32 2d 30 33 2d 31 30 20 31 30 3a 30 30 3a 30 30|2-03-10 10:00:00|
      |                                               |                |        [1]{}: cell 0x1f9a-0x1fcc.7 (51)
0x1f90|                              31               |          1     |          payload_len: 49 0x1f9a-0x1f9a.7 (1)
0x1f90|                                 02            |           .    |          rowid: 2 0x1f9b-0x1f9b.7 (1)
      |                                               |                |          payload{}: 0x1f9c-0x1fcc.7 (49)
0x1f90|                                    08         |            .   |            length: 8 0x1f9c-0x1f9c.7 (1)
      |                                               |                |            serials[0:7]: 0x1f9d-0x1fa3.7 (7)
0x1f90|                                       09      |             .  |              [0]: 9 serial (one) 0x1f9d-0x1f9d.7 (1)
0x1f90|                                          09   |              . |              [1]: 9 serial (one) 0x1f9e-0x1f9e.7 (1)
0x1f90|                                             15|               .|              [2]: 21 serial (text) 0x1f9f-0x1f9f.7 (1)
0x1fa0|17                                             |.               |              [3]: 23 serial (text) 0x1fa0-0x1fa0.7 (1)
0x1fa0|   07                                          | .              |              [4]: 7 serial (float64) 0x1fa1-0x1fa1.7 (1)
0x1fa0|      17                                       |  .             |              [5]: 23 serial (text) 0x1fa2-0x1fa2.7 (1)
0x1fa0|         33                                    |   3            |              [6]: 51 serial (text) 0x1fa3-0x1fa3.7 (1)
      |                                               |                |            contents[0:7]: 0x1fa4-0x1fcc.7 (41)
      |                                               |                |              [0]: 1 value 0x1fa4-NA (0)
      |                                               |                |              [1]: 1 value 0x1fa4-NA (0)
0x1fa0|            76 61 72 32                        |    var2        |              [2]: "var2" value 0x1fa4-0x1fa7.7 (4)
0x1fa0|                        74 65 73 74 32         |        test2   |              [3]: "test2" value 0x1fa8-0x1fac.7 (5)
0x1fa0|                                       3f f8 00|             ?..|              [4]: 1.5 value 0x1fad-0x1fb4.7 (8)
0x1fb0|00 00 00 00 00                                 |.....           |
0x1fb0|               62 6c 6f 62 32                  |     blob2      |              [5]: "blob2" value 0x1fb5-0x1fb9.7 (5)
0x1fb0|                              32 30 32 32 2d 30|          2022-0|              [6]: "2022-03-10 10:00:01" value 0x1fba-0x1fcc.7 (19)
0x1fc0|33 2d 31 30 20 31 30 3a 30 30 3a 30 31         |3-10 10:00:01   |
      |                                               |                |        [2]{}: cell 0x1f63-0x1f99.7 (55)
0x1f60|         35                                    |   5            |          payload_len: 53 0x1f63-0x1f63.7 (1)
0x1f60|            03                                 |    .           |          rowid: 3 0x1f64-0x1f64.7 (1)
      |                                               |                |          payload{}: 0x1f65-0x1f99.7 (53)
0x1f60|               08                              |     .          |            length: 8 0x1f65-0x1f65.7 (1)
      |                                               |                |            serials[0:7]: 0x1f66-0x1f6c.7 (7)
0x1f60|                  02                           |      .         |              [0]: 2 serial (int16) 0x1f66-0x1f66.7 (1)
0x1f60|                     02                        |       .        |              [1]: 2 serial (int16) 0x1f67-0x1f67.7 (1)
0x1f60|                        15                     |        .       |              [2]: 21 serial (text) 0x1f68-0x1f68.7 (1)
0x1f60|                           17                  |         .      |              [3]: 23 serial (text) 0x1f69-0x1f69.7 (1)
0x1f60|                              07               |          .     |              [4]: 7 serial (float64) 0x1f6a-0x1f6a.7 (1)
0x1f60|                                 17            |           .    |              [5]: 23 serial (text) 0x1f6b-0x1f6b.7 (1)
0x1f60|                                    33         |            3   |              [6]: 51 serial (text) 0x1f6c-0x1f6c.7 (1)
      |                                               |                |            contents[0:7]: 0x1f6d-0x1f99.7 (45)
0x1f60|                                       00 80   |             .. |              [0]: 128 value 0x1f6d-0x1f6e.7 (2)
0x1f60|                                             00|               .|              [1]: 128 value 0x1f6f-0x1f70.7 (2)
0x1f70|80                                             |.               |
0x1f70|   76 61 72 33                                 | var3           |              [2]: "var3" value 0x1f71-0x1f74.7 (4)
0x1f70|               74 65 73 74 33                  |     test3      |              [3]: "test3" value 0x1f75-0x1f79.7 (5)
0x1f70|                              40 60 10 00 00 00|          @`....|              [4]: 128.5 value 0x1f7a-0x1f81.7 (8)
0x1f80|00 00                                          |..              |
0x1f80|      62 6c 6f 62 33                           |  blob3         |              [5]: "blob3" value 0x1f82-0x1f86.7 (5)
0x1f80|                     32 30 32 32 2d 30 33 2d 31|       2022-03-1|              [6]: "2022-03-10 10:00:02" value 0x1f87-0x1f99.7 (19)
0x1f90|30 20 31 30 3a 30 30 3a 30 32                  |0 10:00:02      |
      |                                               |                |        [3]{}: cell 0x1f2d-0x1f62.7 (54)
0x1f20|                                       34      |             4  |          payload_len: 52 0x1f2d-0x1f2d.7 (1)
0x1f20|                                          04   |              . |          rowid: 4 0x1f2e-0x1f2e.7 (1)
      |                                               |                |          payload{}: 0x1f2f-0x1f62.7 (52)
0x1f20|                                             08|               .|            length: 8 0x1f2f-0x1f2f.7 (1)
      |                                               |                |            serials[0:7]: 0x1f30-0x1f36.7 (7)
0x1f30|01                                             |.               |              [0]: 1 serial (int8) 0x1f30-0x1f30.7 (1)
0x1f30|   02                                          | .              |              [1]: 2 serial (int16) 0x1f31-0x1f31.7 (1)
0x1f30|      15                                       |  .             |              [2]: 21 serial (text) 0x1f32-0x1f32.7 (1)
0x1f30|         17                                    |   .            |              [3]: 23 serial (text) 0x1f33-0x1f33.7 (1)
0x1f30|            07                                 |    .           |              [4]: 7 serial (float64) 0x1f34-0x1f34.7 (1)
0x1f30|               17                              |     .          |              [5]: 23 serial (text) 0x1f35-0x1f35.7 (1)
0x1f30|                  33                           |      3         |              [6]: 51 serial (text) 0x1f36-0x1f36.7 (1)
      |                                               |                |            contents[0:7]: 0x1f37-0x1f62.7 (44)
0x1f30|                     80                        |       .        |              [0]: -128 value 0x1f37-0x1f37.7 (1)
0x1f30|                        00 80                  |        ..      |              [1]: 128 value 0x1f38-0x1f39.7 (2)
0x1f30|                              76 61 72 33      |          var3  |              [2]: "var3" value 0x1f3a-0x1f3d.7 (4)
0x1f30|                                          74 65|              te|              [3]: "test3" value 0x1f3e-0x1f42.7 (5)
0x1f40|73 74 33                                       |st3             |
0x1f40|         c0 60 10 00 00 00 00 00               |   .`......     |              [4]: -128.5 value 0x1f43-0x1f4a.7 (8)
0x1f40|                                 62 6c 6f 62 33|           blob3|              [5]: "blob3" value 0x1f4b-0x1f4f.7 (5)
0x1f50|32 30 32 32 2d 30 33 2d 31 30 20 31 30 3a 30 30|2022-03-10 10:00|              [6]: "2022-03-10 10:00:03" value 0x1f50-0x1f62.7 (19)
0x1f60|3a 30 33                                       |:03             |
      |                                               |                |        [4]{}: cell 0x1eea-0x1f2c.7 (67)
0x1ee0|                              41               |          A     |          payload_len: 65 0x1eea-0x1eea.7 (1)
0x1ee0|                                 05            |           .    |          rowid: 5 0x1eeb-0x1eeb.7 (1)
      |                                               |                |          payload{}: 0x1eec-0x1f2c.7 (65)
0x1ee0|                                    08         |            .   |            length: 8 0x1eec-0x1eec.7 (1)
      |                                               |                |            serials[0:7]: 0x1eed-0x1ef3.7 (7)
0x1ee0|                                       06      |             .  |              [0]: 6 serial (int64) 0x1eed-0x1eed.7 (1)
0x1ee0|                                          06   |              . |              [1]: 6 serial (int64) 0x1eee-0x1eee.7 (1)
0x1ee0|                                             15|               .|              [2]: 21 serial (text) 0x1eef-0x1eef.7 (1)
0x1ef0|17                                             |.               |              [3]: 23 serial (text) 0x1ef0-0x1ef0.7 (1)
0x1ef0|   07                                          | .              |              [4]: 7 serial (float64) 0x1ef1-0x1ef1.7 (1)
0x1ef0|      17                                       |  .             |              [5]: 23 serial (text) 0x1ef2-0x1ef2.7 (1)
0x1ef0|         33                                    |   3            |              [6]: 51 serial (text) 0x1ef3-0x1ef3.7 (1)
      |                                               |                |            contents[0:7]: 0x1ef4-0x1f2c.7 (57)
0x1ef0|            7f ff ff ff ff ff ff ff            |    ........    |              [0]: 9223372036854775807 value 0x1ef4-0x1efb.7 (8)
0x1ef0|                                    7f ff ff ff|            ....|              [1]: 9223372036854775807 value 0x1efc-0x1f03.7 (8)
0x1f00|ff ff ff ff                                    |....            |
0x1f00|            76 61 72 34                        |    var4        |              [2]: "var4" value 0x1f04-0x1f07.7 (4)
0x1f00|                        74 65 73 74 34         |        test4   |              [3]: "test4" value 0x1f08-0x1f0c.7 (5)
0x1f00|                                       43 e0 00|             C..|              [4]: 9.223372036854776e+18 value 0x1f0d-0x1f14.7 (8)
0x1f10|00 00 00 00 00                                 |.....           |
0x1f10|               62 6c 6f 62 34                  |     blob4      |              [5]: "blob4" value 0x1f15-0x1f19.7 (5)
0x1f10|                              32 30 32 32 2d 30|          2022-0|              [6]: "2022-03-10 10:00:04" value 0x1f1a-0x1f2c.7 (19)
0x1f20|33 2d 31 30 20 31 30 3a 30 30 3a 30 34         |3-10 10:00:04   |
      |                                               |                |        [5]{}: cell 0x1ea7-0x1ee9.7 (67)
0x1ea0|                     41                        |       A        |          payload_len: 65 0x1ea7-0x1ea7.7 (1)
0x1ea0|                        06                     |        .       |          rowid: 6 0x1ea8-0x1ea8.7 (1)
      |                                               |                |          payload{}: 0x1ea9-0x1ee9.7 (65)
0x1ea0|                           08                  |         .      |            length: 8 0x1ea9-0x1ea9.7 (1)
      |                                               |                |            serials[0:7]: 0x1eaa-0x1eb0.7 (7)
0x1ea0|                              06               |          .     |              [0]: 6 serial (int64) 0x1eaa-0x1eaa.7 (1)
0x1ea0|                                 06            |           .    |              [1]: 6 serial (int64) 0x1eab-0x1eab.7 (1)
0x1ea0|                                    15         |            .   |              [2]: 21 serial (text) 0x1eac-0x1eac.7 (1)
0x1ea0|                                       17      |             .  |              [3]: 23 serial (text) 0x1ead-0x1ead.7 (1)
0x1ea0|                                          07   |              . |              [4]: 7 serial (float64) 0x1eae-0x1eae.7 (1)
0x1ea0|                                             17|               .|              [5]: 23 serial (text) 0x1eaf-0x1eaf.7 (1)
0x1eb0|33                                             |3               |              [6]: 51 serial (text) 0x1eb0-0x1eb0.7 (1)
      |                                               |                |            contents[0:7]: 0x1eb1-0x1ee9.7 (57)
0x1eb0|   80 00 00 00 00 00 00 00                     | ........       |              [0]: -9223372036854775808 value 0x1eb1-0x1eb8.7 (8)
0x1eb0|                           80 00 00 00 00 00 00|         .......|              [1]: -9223372036854775808 value 0x1eb9-0x1ec0.7 (8)
0x1ec0|00                                             |.               |
0x1ec0|   76 61 72 35                                 | var5           |              [2]: "var5" value 0x1ec1-0x1ec4.7 (4)
0x1ec0|               74 65 73 74 35                  |     test5      |              [3]: "test5" value 0x1ec5-0x1ec9.7 (5)
0x1ec0|                              c3 e0 00 00 00 00|          ......|              [4]: -9.223372036854776e+18 value 0x1eca-0x1ed1.7 (8)
0x1ed0|00 00                                          |..              |
0x1ed0|      62 6c 6f 62 35                           |  blob5         |              [5]: "blob5" value 0x1ed2-0x1ed6.7 (5)
0x1ed0|                     32 30 32 32 2d 30 33 2d 31|       2022-03-1|              [6]: "2022-03-10 10:00:05" value 0x1ed7-0x1ee9.7 (19)
0x1ee0|30 20 31 30 3a 30 30 3a 30 35                  |0 10:00:05      |
      |                                               |                |    [3]{}: page 0x2000-0x2fff.7 (4096)
0x2000|0a                                             |.               |      type: "index_leaf" (10) 0x2000-0x2000.7 (1)
0x2000|   00 00                                       | ..             |      start_freeblocks: 0 0x2001-0x2002.7 (2)
0x2000|         00 06                                 |   ..           |      page_cells: 6 0x2003-0x2004.7 (2)
0x2000|               0f d0                           |     ..         |      cell_start: 4048 0x2005-0x2006.7 (2)
0x2000|                     00                        |       .        |      cell_fragments: 0 0x2007-0x2007.7 (1)
      |                                               |                |      cells_pointers[0:6]: 0x2008-0x2013.7 (12)
0x2000|                        0f d0                  |        ..      |        [0]: 4048 pointer 0x2008-0x2009.7 (2)
0x2000|                              0f ea            |          ..    |        [1]: 4074 pointer 0x200a-0x200b.7 (2)
0x2000|                                    0f fc      |            ..  |        [2]: 4092 pointer 0x200c-0x200d.7 (2)
0x2000|                                          0f f7|              ..|        [3]: 4087 pointer 0x200e-0x200f.7 (2)
0x2010|0f f0                                          |..              |        [4]: 4080 pointer 0x2010-0x2011.7 (2)
0x2010|      0f dd                                    |  ..            |        [5]: 4061 pointer 0x2012-0x2013.7 (2)
      |                                               |                |      cells[0:6]: 0x2fd0-0x2fff.7 (48)
      |                                               |                |        [0]{}: cell 0x2fd0-0x2fdc.7 (13)
0x2fd0|0c                                             |.               |          payload_len: 12 0x2fd0-0x2fd0.7 (1)
      |                                               |                |          payload{}: 0x2fd1-0x2fdc.7 (12)
0x2fd0|   03                                          | .              |            length: 3 0x2fd1-0x2fd1.7 (1)
      |                                               |                |            serials[0:2]: 0x2fd2-0x2fd3.7 (2)
0x2fd0|      06                                       |  .             |              [0]: 6 serial (int64) 0x2fd2-0x2fd2.7 (1)
0x2fd0|         01                                    |   .            |              [1]: 1 serial (int8) 0x2fd3-0x2fd3.7 (1)
      |                                               |                |            contents[0:2]: 0x2fd4-0x2fdc.7 (9)
0x2fd0|            80 00 00 00 00 00 00 00            |    ........    |              [0]: -9223372036854775808 value 0x2fd4-0x2fdb.7 (8)
0x2fd0|                                    06         |            .   |              [1]: 6 value 0x2fdc-0x2fdc.7 (1)
      |                                               |                |        [1]{}: cell 0x2fea-0x2fef.7 (6)
0x2fe0|                              05               |          .     |          payload_len: 5 0x2fea-0x2fea.7 (1)
      |                                               |                |          payload{}: 0x2feb-0x2fef.7 (5)
0x2fe0|                                 03            |           .    |            length: 3 0x2feb-0x2feb.7 (1)
      |                                               |                |            serials[0:2]: 0x2fec-0x2fed.7 (2)
0x2fe0|                                    01         |            .   |              [0]: 1 serial (int8) 0x2fec-0x2fec.7 (1)
0x2fe0|                                       01      |             .  |              [1]: 1 serial (int8) 0x2fed-0x2fed.7 (1)
      |                                               |                |            contents[0:2]: 0x2fee-0x2fef.7 (2)
0x2fe0|                                          80   |              . |              [0]: -128 value 0x2fee-0x2fee.7 (1)
0x2fe0|                                             04|               .|              [1]: 4 value 0x2fef-0x2fef.7 (1)
      |                                               |                |        [2]{}: cell 0x2ffc-0x2fff.7 (4)
0x2ff0|                                    03         |            .   |          payload_len: 3 0x2ffc-0x2ffc.7 (1)
      |                                               |                |          payload{}: 0x2ffd-0x2fff.7 (3)
0x2ff0|                                       03      |             .  |            length: 3 0x2ffd-0x2ffd.7 (1)
      |                                               |                |            serials[0:2]: 0x2ffe-0x2fff.7 (2)
0x2ff0|                                          08   |              . |              [0]: 8 serial (zero) 0x2ffe-0x2ffe.7 (1)
0x2ff0|                                             09|               .|              [1]: 9 serial (one) 0x2fff-0x2fff.7 (1)
      |                                               |                |            contents[0:2]: 0x3000-NA (0)
      |                                               |                |              [0]: 0 value 0x3000-NA (0)
      |                                               |                |              [1]: 1 value 0x3000-NA (0)
      |                                               |                |        [3]{}: cell 0x2ff7-0x2ffb.7 (5)
0x2ff0|                     04                        |       .        |          payload_len: 4 0x2ff7-0x2ff7.7 (1)
      |                                               |                |          payload{}: 0x2ff8-0x2ffb.7 (4)
0x2ff0|                        03                     |        .       |            length: 3 0x2ff8-0x2ff8.7 (1)
      |                                               |                |            serials[0:2]: 0x2ff9-0x2ffa.7 (2)
0x2ff0|                           09                  |         .      |              [0]: 9 serial (one) 0x2ff9-0x2ff9.7 (1)
0x2ff0|                              01               |          .     |              [1]: 1 serial (int8) 0x2ffa-0x2ffa.7 (1)
      |                                               |                |            contents[0:2]: 0x2ffb-0x2ffb.7 (1)
      |                                               |                |              [0]: 1 value 0x2ffb-NA (0)
0x2ff0|                                 02            |           .    |              [1]: 2 value 0x2ffb-0x2ffb.7 (1)
      |                                               |                |        [4]{}: cell 0x2ff0-0x2ff6.7 (7)
0x2ff0|06                                             |.               |          payload_len: 6 0x2ff0-0x2ff0.7 (1)
      |                                               |                |          payload{}: 0x2ff1-0x2ff6.7 (6)
0x2ff0|   03                                          | .              |            length: 3 0x2ff1-0x2ff1.7 (1)
      |                                               |                |            serials[0:2]: 0x2ff2-0x2ff3.7 (2)
0x2ff0|      02                                       |  .             |              [0]: 2 serial (int16) 0x2ff2-0x2ff2.7 (1)
0x2ff0|         01                                    |   .            |              [1]: 1 serial (int8) 0x2ff3-0x2ff3.7 (1)
      |                                               |                |            contents[0:2]: 0x2ff4-0x2ff6.7 (3)
0x2ff0|            00 80                              |    ..          |              [0]: 128 value 0x2ff4-0x2ff5.7 (2)
0x2ff0|                  03                           |      .         |              [1]: 3 value 0x2ff6-0x2ff6.7 (1)
      |                                               |                |        [5]{}: cell 0x2fdd-0x2fe9.7 (13)
0x2fd0|                                       0c      |             .  |          payload_len: 12 0x2fdd-0x2fdd.7 (1)
      |                                               |                |          payload{}: 0x2fde-0x2fe9.7 (12)
0x2fd0|                                          03   |              . |            length: 3 0x2fde-0x2fde.7 (1)
      |                                               |                |            serials[0:2]: 0x2fdf-0x2fe0.7 (2)
0x2fd0|                                             06|               .|              [0]: 6 serial (int64) 0x2fdf-0x2fdf.7 (1)
0x2fe0|01                                             |.               |              [1]: 1 serial (int8) 0x2fe0-0x2fe0.7 (1)
      |                                               |                |            contents[0:2]: 0x2fe1-0x2fe9.7 (9)
0x2fe0|   7f ff ff ff ff ff ff ff                     | ........       |              [0]: 9223372036854775807 value 0x2fe1-0x2fe8.7 (8)
0x2fe0|                           05                  |         .      |              [1]: 5 value 0x2fe9-0x2fe9.7 (1)
0x0070|00 00 00 00 00 00 00 00 00 00 00 00 00 00 00 00|................|  unknown0: raw bits 0x70-0xf09.7 (3738)
*     |until 0xf09.7 (3738)                           |                |
0x0ff0|                              00 08 00 00 00 00|          ......|  unknown1: raw bits 0xffa-0xfff.7 (6)
0x1010|            00 00 00 00 00 00 00 00 00 00 00 00|    ............|  unknown2: raw bits 0x1014-0x1ea6.7 (3731)
0x1020|00 00 00 00 00 00 00 00 00 00 00 00 00 00 00 00|................|
*     |until 0x1ea6.7 (3731)                          |                |
0x2010|            00 00 00 00 00 00 00 00 00 00 00 00|    ............|  unknown3: raw bits 0x2014-0x2fcf.7 (4028)
0x2020|00 00 00 00 00 00 00 00 00 00 00 00 00 00 00 00|................|
*     |until 0x2fcf.7 (4028)                          |                |
{
  "types": [
    [
      0,
      0,
      "var1",
      "text1",
      0.5,
      "blob1",
      "2022-03-10 10:00:00"
    ],
    [
      1,
      1,
      "var2",
      "test2",
      1.5,
      "blob2",
      "2022-03-10 10:00:01"
    ],
    [
      128,
      128,
      "var3",
      "test3",
      128.5,
      "blob3",
      "2022-03-10 10:00:02"
    ],
    [
      -128,
      128,
      "var3",
      "test3",
      -128.5,
      "blob3",
      "2022-03-10 10:00:03"
    ],
    [
      9223372036854775807,
      9223372036854775807,
      "var4",
      "test4",
      9223372036854776000,
      "blob4",
      "2022-03-10 10:00:04"
    ],
    [
      -9223372036854775808,
      -9223372036854775808,
      "var5",
      "test5",
      -9223372036854776000,
      "blob5",
      "2022-03-10 10:00:05"
    ]
  ]
}
